target datalayout = "e-m:e-p270:32:32-p271:32:32-p272:64:64-i64:64-i128:128-f80:128-n8:16:32:64-S128"
target triple = "x86_64-pc-linux-gnu"

%struct.UConverter = type { ptr, ptr, ptr, ptr, ptr, ptr, ptr, i32, i8, i8, i8, i8, i8, [7 x i8], i32, i32, i32, i32, i8, i8, i8, i8, i8, i8, i8, i8, [8 x i8], [32 x i8], [2 x i16], [2 x i16], [32 x i16], i32, [19 x i16], [31 x i8], i8, i8, i8, i32 }
%struct.UConverterDataISO2022 = type { [10 x ptr], ptr, i32, %struct.ISO2022State, %struct.ISO2022State, i32, i32, i8, [30 x i8], [3 x i8] }
%struct.ISO2022State = type { [4 x i8], i8, i8 }

; Function Attrs: inlinehint mustprogress nounwind uwtable
define internal void @_ZL28setInitialStateFromUnicodeKRP10UConverterP21UConverterDataISO2022(ptr noundef %0, ptr noundef %1) #9 {
  %3 = alloca ptr, align 8
  %4 = alloca ptr, align 8
  %5 = alloca ptr, align 8
  store ptr %0, ptr %3, align 8, !tbaa !3
  store ptr %1, ptr %4, align 8, !tbaa !8
  %6 = load ptr, ptr %3, align 8, !tbaa !3
  %7 = getelementptr inbounds nuw %struct.UConverter, ptr %6, i32 0, i32 21
  %8 = load i8, ptr %7, align 1, !tbaa !67
  %9 = sext i8 %8 to i32
  %10 = icmp eq i32 %9, 0
  br i1 %10, label %11, label %26

11:                                               ; preds = %2
  %12 = load ptr, ptr %3, align 8, !tbaa !3
  %13 = getelementptr inbounds nuw %struct.UConverter, ptr %12, i32 0, i32 21
  store i8 4, ptr %13, align 1, !tbaa !67
  %14 = load ptr, ptr %3, align 8, !tbaa !3
  %15 = getelementptr inbounds nuw %struct.UConverter, ptr %14, i32 0, i32 27
  %16 = getelementptr inbounds [32 x i8], ptr %15, i64 0, i64 0
  store i8 27, ptr %16, align 8, !tbaa !27
  %17 = load ptr, ptr %3, align 8, !tbaa !3
  %18 = getelementptr inbounds nuw %struct.UConverter, ptr %17, i32 0, i32 27
  %19 = getelementptr inbounds [32 x i8], ptr %18, i64 0, i64 1
  store i8 36, ptr %19, align 1, !tbaa !27
  %20 = load ptr, ptr %3, align 8, !tbaa !3
  %21 = getelementptr inbounds nuw %struct.UConverter, ptr %20, i32 0, i32 27
  %22 = getelementptr inbounds [32 x i8], ptr %21, i64 0, i64 2
  store i8 41, ptr %22, align 2, !tbaa !27
  %23 = load ptr, ptr %3, align 8, !tbaa !3
  %24 = getelementptr inbounds nuw %struct.UConverter, ptr %23, i32 0, i32 27
  %25 = getelementptr inbounds [32 x i8], ptr %24, i64 0, i64 3
  store i8 67, ptr %25, align 1, !tbaa !27
  br label %26

26:                                               ; preds = %11, %2
  %27 = load ptr, ptr %4, align 8, !tbaa !8
  %28 = getelementptr inbounds nuw %struct.UConverterDataISO2022, ptr %27, i32 0, i32 6
  %29 = load i32, ptr %28, align 4, !tbaa !26
  %30 = icmp eq i32 %29, 1
  br i1 %30, label %31, label %39

31:                                               ; preds = %26
  call void @llvm.lifetime.start.p0(i64 8, ptr %5) #11
  %32 = load ptr, ptr %4, align 8, !tbaa !8
  %33 = getelementptr inbounds nuw %struct.UConverterDataISO2022, ptr %32, i32 0, i32 1
  %34 = load ptr, ptr %33, align 8, !tbaa !36
  store ptr %34, ptr %5, align 8, !tbaa !3
  %35 = load ptr, ptr %5, align 8, !tbaa !3
  %36 = getelementptr inbounds nuw %struct.UConverter, ptr %35, i32 0, i32 17
  store i32 0, ptr %36, align 4, !tbaa !66
  %37 = load ptr, ptr %5, align 8, !tbaa !3
  %38 = getelementptr inbounds nuw %struct.UConverter, ptr %37, i32 0, i32 16
  store i32 1, ptr %38, align 8, !tbaa !22
  call void @llvm.lifetime.end.p0(i64 8, ptr %5) #11
  br label %39

39:                                               ; preds = %31, %26
  ret void
}

; Function Attrs: inlinehint mustprogress nounwind uwtable
define internal void @_ZL26setInitialStateToUnicodeKRP10UConverterP21UConverterDataISO2022(ptr noundef %0, ptr noundef %1) #9 {
  %3 = alloca ptr, align 8
  %4 = alloca ptr, align 8
  %5 = alloca ptr, align 8
  store ptr %0, ptr %3, align 8, !tbaa !3
  store ptr %1, ptr %4, align 8, !tbaa !8
  %6 = load ptr, ptr %4, align 8, !tbaa !8
  %7 = getelementptr inbounds nuw %struct.UConverterDataISO2022, ptr %6, i32 0, i32 6
  %8 = load i32, ptr %7, align 4, !tbaa !26
  %9 = icmp eq i32 %8, 1
  br i1 %9, label %10, label %20

10:                                               ; preds = %2
  call void @llvm.lifetime.start.p0(i64 8, ptr %5) #11
  %11 = load ptr, ptr %4, align 8, !tbaa !8
  %12 = getelementptr inbounds nuw %struct.UConverterDataISO2022, ptr %11, i32 0, i32 1
  %13 = load ptr, ptr %12, align 8, !tbaa !36
  store ptr %13, ptr %5, align 8, !tbaa !3
  %14 = load ptr, ptr %5, align 8, !tbaa !3
  %15 = getelementptr inbounds nuw %struct.UConverter, ptr %14, i32 0, i32 14
  store i32 0, ptr %15, align 8, !tbaa !94
  %16 = load ptr, ptr %5, align 8, !tbaa !3
  %17 = getelementptr inbounds nuw %struct.UConverter, ptr %16, i32 0, i32 15
  store i32 0, ptr %17, align 4, !tbaa !95
  %18 = load ptr, ptr %5, align 8, !tbaa !3
  %19 = getelementptr inbounds nuw %struct.UConverter, ptr %18, i32 0, i32 12
  store i8 0, ptr %19, align 8, !tbaa !96
  call void @llvm.lifetime.end.p0(i64 8, ptr %5) #11
  br label %20

20:                                               ; preds = %10, %2
  ret void
}

; Function Attrs: mustprogress nounwind uwtable
define internal void @_ZL13_ISO2022ResetP10UConverter21UConverterResetChoice(ptr noundef %0, i32 noundef %1) #1 {
  %3 = alloca ptr, align 8
  %4 = alloca i32, align 4
  %5 = alloca ptr, align 8
  store ptr %0, ptr %3, align 8, !tbaa !3
  store i32 %1, ptr %4, align 4, !tbaa !56
  call void @llvm.lifetime.start.p0(i64 8, ptr %5) #11
  %6 = load ptr, ptr %3, align 8, !tbaa !3
  %7 = getelementptr inbounds nuw %struct.UConverter, ptr %6, i32 0, i32 2
  %8 = load ptr, ptr %7, align 8, !tbaa !9
  store ptr %8, ptr %5, align 8, !tbaa !8
  %9 = load i32, ptr %4, align 4, !tbaa !56
  %10 = icmp sle i32 %9, 1
  br i1 %10, label %11, label %18

11:                                               ; preds = %2
  %12 = load ptr, ptr %5, align 8, !tbaa !8
  %13 = getelementptr inbounds nuw %struct.UConverterDataISO2022, ptr %12, i32 0, i32 3
  call void @llvm.memset.p0.i64(ptr align 4 %13, i8 0, i64 6, i1 false)
  %14 = load ptr, ptr %5, align 8, !tbaa !8
  %15 = getelementptr inbounds nuw %struct.UConverterDataISO2022, ptr %14, i32 0, i32 5
  store i32 0, ptr %15, align 8, !tbaa !58
  %16 = load ptr, ptr %5, align 8, !tbaa !8
  %17 = getelementptr inbounds nuw %struct.UConverterDataISO2022, ptr %16, i32 0, i32 7
  store i8 0, ptr %17, align 8, !tbaa !59
  br label %18

18:                                               ; preds = %11, %2
  %19 = load i32, ptr %4, align 4, !tbaa !56
  %20 = icmp ne i32 %19, 1
  br i1 %20, label %21, label %24

21:                                               ; preds = %18
  %22 = load ptr, ptr %5, align 8, !tbaa !8
  %23 = getelementptr inbounds nuw %struct.UConverterDataISO2022, ptr %22, i32 0, i32 4
  call void @llvm.memset.p0.i64(ptr align 2 %23, i8 0, i64 6, i1 false)
  br label %24

24:                                               ; preds = %21, %18
  %25 = load ptr, ptr %5, align 8, !tbaa !8
  %26 = getelementptr inbounds nuw %struct.UConverterDataISO2022, ptr %25, i32 0, i32 9
  %27 = getelementptr inbounds [3 x i8], ptr %26, i64 0, i64 0
  %28 = load i8, ptr %27, align 1, !tbaa !27
  %29 = sext i8 %28 to i32
  %30 = icmp eq i32 %29, 107
  br i1 %30, label %31, label %44

31:                                               ; preds = %24
  %32 = load i32, ptr %4, align 4, !tbaa !56
  %33 = icmp sle i32 %32, 1
  br i1 %33, label %34, label %37

34:                                               ; preds = %31
  %35 = load ptr, ptr %3, align 8, !tbaa !3
  %36 = load ptr, ptr %5, align 8, !tbaa !8
  call void @_ZL26setInitialStateToUnicodeKRP10UConverterP21UConverterDataISO2022(ptr noundef %35, ptr noundef %36)
  br label %37

37:                                               ; preds = %34, %31
  %38 = load i32, ptr %4, align 4, !tbaa !56
  %39 = icmp ne i32 %38, 1
  br i1 %39, label %40, label %43

40:                                               ; preds = %37
  %41 = load ptr, ptr %3, align 8, !tbaa !3
  %42 = load ptr, ptr %5, align 8, !tbaa !8
  call void @_ZL28setInitialStateFromUnicodeKRP10UConverterP21UConverterDataISO2022(ptr noundef %41, ptr noundef %42)
  br label %43

43:                                               ; preds = %40, %37
  br label %44

44:                                               ; preds = %43, %24
  call void @llvm.lifetime.end.p0(i64 8, ptr %5) #11
  ret void
}