; Function Attrs: mustprogress nofree norecurse nosync nounwind willreturn memory(readwrite, inaccessiblemem: none) uwtable
define internal void @_ZL13_ISO2022ResetP10UConverter21UConverterResetChoice(ptr noundef captures(none) %0, i32 noundef %1) #1 {
  %3 = getelementptr inbounds nuw i8, ptr %0, i64 16
  %4 = load ptr, ptr %3, align 8, !tbaa !3
  %5 = icmp slt i32 %1, 2
  br i1 %5, label %6, label %.thread24

6:                                                ; preds = %2
  %7 = getelementptr inbounds nuw i8, ptr %4, i64 92
  tail call void @llvm.memset.p0.i64(ptr noundef nonnull align 4 dereferenceable(6) %7, i8 0, i64 6, i1 false)
  %8 = getelementptr inbounds nuw i8, ptr %4, i64 104
  store i32 0, ptr %8, align 8, !tbaa !50
  %9 = getelementptr inbounds nuw i8, ptr %4, i64 112
  store i8 0, ptr %9, align 8, !tbaa !51
  %.not = icmp eq i32 %1, 1
  br i1 %.not, label %.thread16, label %10

10:                                               ; preds = %6
  %11 = getelementptr inbounds nuw i8, ptr %4, i64 98
  tail call void @llvm.memset.p0.i64(ptr noundef nonnull align 2 dereferenceable(6) %11, i8 0, i64 6, i1 false)
  %12 = getelementptr inbounds nuw i8, ptr %4, i64 143
  %13 = load i8, ptr %12, align 1, !tbaa !23
  %14 = icmp eq i8 %13, 107
  br i1 %14, label %.thread19.thread, label %_ZL28setInitialStateFromUnicodeKRP10UConverterP21UConverterDataISO2022.exit

.thread24:                                        ; preds = %2
  %15 = getelementptr inbounds nuw i8, ptr %4, i64 98
  tail call void @llvm.memset.p0.i64(ptr noundef nonnull align 2 dereferenceable(6) %15, i8 0, i64 6, i1 false)
  %16 = getelementptr inbounds nuw i8, ptr %4, i64 143
  %17 = load i8, ptr %16, align 1, !tbaa !23
  %18 = icmp eq i8 %17, 107
  br i1 %18, label %_ZL26setInitialStateToUnicodeKRP10UConverterP21UConverterDataISO2022.exit.thread, label %_ZL28setInitialStateFromUnicodeKRP10UConverterP21UConverterDataISO2022.exit

.thread16:                                        ; preds = %6
  %19 = getelementptr inbounds nuw i8, ptr %4, i64 143
  %20 = load i8, ptr %19, align 1, !tbaa !23
  %21 = icmp eq i8 %20, 107
  br i1 %21, label %.thread19, label %_ZL28setInitialStateFromUnicodeKRP10UConverterP21UConverterDataISO2022.exit

.thread19:                                        ; preds = %.thread16
  %22 = getelementptr inbounds nuw i8, ptr %4, i64 108
  %23 = load i32, ptr %22, align 4, !tbaa !18
  %24 = icmp eq i32 %23, 1
  br i1 %24, label %33, label %_ZL28setInitialStateFromUnicodeKRP10UConverterP21UConverterDataISO2022.exit

.thread19.thread:                                 ; preds = %10
  %25 = getelementptr inbounds nuw i8, ptr %4, i64 108
  %26 = load i32, ptr %25, align 4, !tbaa !18
  %27 = icmp eq i32 %26, 1
  br i1 %27, label %.thread, label %_ZL26setInitialStateToUnicodeKRP10UConverterP21UConverterDataISO2022.exit.thread

.thread:                                          ; preds = %.thread19.thread
  %28 = getelementptr inbounds nuw i8, ptr %4, i64 80
  %29 = load ptr, ptr %28, align 8, !tbaa !28
  %30 = getelementptr inbounds nuw i8, ptr %29, i64 72
  store i32 0, ptr %30, align 8, !tbaa !31
  %31 = getelementptr inbounds nuw i8, ptr %29, i64 76
  store i32 0, ptr %31, align 4, !tbaa !32
  %32 = getelementptr inbounds nuw i8, ptr %29, i64 64
  store i8 0, ptr %32, align 8, !tbaa !33
  br label %_ZL26setInitialStateToUnicodeKRP10UConverterP21UConverterDataISO2022.exit.thread

33:                                               ; preds = %.thread19
  %34 = getelementptr inbounds nuw i8, ptr %4, i64 80
  %35 = load ptr, ptr %34, align 8, !tbaa !28
  %36 = getelementptr inbounds nuw i8, ptr %35, i64 72
  store i32 0, ptr %36, align 8, !tbaa !31
  %37 = getelementptr inbounds nuw i8, ptr %35, i64 76
  store i32 0, ptr %37, align 4, !tbaa !32
  %38 = getelementptr inbounds nuw i8, ptr %35, i64 64
  store i8 0, ptr %38, align 8, !tbaa !33
  br label %_ZL28setInitialStateFromUnicodeKRP10UConverterP21UConverterDataISO2022.exit

_ZL26setInitialStateToUnicodeKRP10UConverterP21UConverterDataISO2022.exit.thread: ; preds = %.thread19.thread, %.thread, %.thread24
  %39 = getelementptr inbounds nuw i8, ptr %0, i64 91
  %40 = load i8, ptr %39, align 1, !tbaa !34
  %41 = icmp eq i8 %40, 0
  br i1 %41, label %42, label %47

42:                                               ; preds = %_ZL26setInitialStateToUnicodeKRP10UConverterP21UConverterDataISO2022.exit.thread
  store i8 4, ptr %39, align 1, !tbaa !34
  %43 = getelementptr inbounds nuw i8, ptr %0, i64 104
  store i8 27, ptr %43, align 8, !tbaa !23
  %44 = getelementptr inbounds nuw i8, ptr %0, i64 105
  store i8 36, ptr %44, align 1, !tbaa !23
  %45 = getelementptr inbounds nuw i8, ptr %0, i64 106
  store i8 41, ptr %45, align 2, !tbaa !23
  %46 = getelementptr inbounds nuw i8, ptr %0, i64 107
  store i8 67, ptr %46, align 1, !tbaa !23
  br label %47

47:                                               ; preds = %42, %_ZL26setInitialStateToUnicodeKRP10UConverterP21UConverterDataISO2022.exit.thread
  %48 = getelementptr inbounds nuw i8, ptr %4, i64 108
  %49 = load i32, ptr %48, align 4, !tbaa !18
  %50 = icmp eq i32 %49, 1
  br i1 %50, label %51, label %_ZL28setInitialStateFromUnicodeKRP10UConverterP21UConverterDataISO2022.exit

51:                                               ; preds = %47
  %52 = getelementptr inbounds nuw i8, ptr %4, i64 80
  %53 = load ptr, ptr %52, align 8, !tbaa !28
  %54 = getelementptr inbounds nuw i8, ptr %53, i64 84
  store i32 0, ptr %54, align 4, !tbaa !35
  %55 = getelementptr inbounds nuw i8, ptr %53, i64 80
  store i32 1, ptr %55, align 8, !tbaa !15
  br label %_ZL28setInitialStateFromUnicodeKRP10UConverterP21UConverterDataISO2022.exit

_ZL28setInitialStateFromUnicodeKRP10UConverterP21UConverterDataISO2022.exit: ; preds = %.thread19, %33, %.thread24, %51, %47, %.thread16, %10
  ret void
}